target datalayout = "e-m:e-p270:32:32-p271:32:32-p272:64:64-i64:64-i128:128-f80:128-n8:16:32:64-S128"
target triple = "x86_64-pc-linux-gnu"

@.str = private unnamed_addr constant [5 x i8] c"path\00", align 1
@.str.19 = private unnamed_addr constant [2 x i8] c".\00", align 1
@.str.20 = private unnamed_addr constant [2 x i8] c"/\00", align 1
@.str.29 = private unnamed_addr constant [30 x i8] c"'package.%s' must be a string\00", align 1
@.str.30 = private unnamed_addr constant [46 x i8] c"error loading module '%s' from file '%s':\0A\09%s\00", align 1

; Function Attrs: nounwind uwtable
define internal i32 @checkload(ptr noundef %0, i32 noundef %1, ptr noundef %2) #0 {
  %4 = alloca i32, align 4
  %5 = alloca ptr, align 8
  %6 = alloca i32, align 4
  %7 = alloca ptr, align 8
  store ptr %0, ptr %5, align 8, !tbaa !4
  store i32 %1, ptr %6, align 4, !tbaa !9
  store ptr %2, ptr %7, align 8, !tbaa !12
  %8 = load i32, ptr %6, align 4, !tbaa !9
  %9 = icmp ne i32 %8, 0
  %10 = zext i1 %9 to i32
  %11 = sext i32 %10 to i64
  %12 = call i64 @llvm.expect.i64(i64 %11, i64 1)
  %13 = icmp ne i64 %12, 0
  br i1 %13, label %14, label %18

14:                                               ; preds = %3
  %15 = load ptr, ptr %5, align 8, !tbaa !4
  %16 = load ptr, ptr %7, align 8, !tbaa !12
  %17 = call ptr @lua_pushstring(ptr noundef %15, ptr noundef %16)
  store i32 2, ptr %4, align 4
  br label %26

18:                                               ; preds = %3
  %19 = load ptr, ptr %5, align 8, !tbaa !4
  %20 = load ptr, ptr %5, align 8, !tbaa !4
  %21 = call ptr @lua_tolstring(ptr noundef %20, i32 noundef 1, ptr noundef null)
  %22 = load ptr, ptr %7, align 8, !tbaa !12
  %23 = load ptr, ptr %5, align 8, !tbaa !4
  %24 = call ptr @lua_tolstring(ptr noundef %23, i32 noundef -1, ptr noundef null)
  %25 = call i32 (ptr, ptr, ...) @luaL_error(ptr noundef %19, ptr noundef @.str.30, ptr noundef %21, ptr noundef %22, ptr noundef %24)
  store i32 %25, ptr %4, align 4
  br label %26

26:                                               ; preds = %18, %14
  %27 = load i32, ptr %4, align 4
  ret i32 %27
}

; Function Attrs: nounwind uwtable
define internal ptr @findfile(ptr noundef %0, ptr noundef %1, ptr noundef %2, ptr noundef %3) #0 {
  %5 = alloca ptr, align 8
  %6 = alloca ptr, align 8
  %7 = alloca ptr, align 8
  %8 = alloca ptr, align 8
  %9 = alloca ptr, align 8
  store ptr %0, ptr %5, align 8, !tbaa !4
  store ptr %1, ptr %6, align 8, !tbaa !12
  store ptr %2, ptr %7, align 8, !tbaa !12
  store ptr %3, ptr %8, align 8, !tbaa !12
  call void @llvm.lifetime.start.p0(i64 8, ptr %9) #6
  %10 = load ptr, ptr %5, align 8, !tbaa !4
  %11 = load ptr, ptr %7, align 8, !tbaa !12
  %12 = call i32 @lua_getfield(ptr noundef %10, i32 noundef -1001001, ptr noundef %11)
  %13 = load ptr, ptr %5, align 8, !tbaa !4
  %14 = call ptr @lua_tolstring(ptr noundef %13, i32 noundef -1, ptr noundef null)
  store ptr %14, ptr %9, align 8, !tbaa !12
  %15 = load ptr, ptr %9, align 8, !tbaa !12
  %16 = icmp eq ptr %15, null
  %17 = zext i1 %16 to i32
  %18 = icmp ne i32 %17, 0
  %19 = zext i1 %18 to i32
  %20 = sext i32 %19 to i64
  %21 = call i64 @llvm.expect.i64(i64 %20, i64 0)
  %22 = icmp ne i64 %21, 0
  br i1 %22, label %23, label %27

23:                                               ; preds = %4
  %24 = load ptr, ptr %5, align 8, !tbaa !4
  %25 = load ptr, ptr %7, align 8, !tbaa !12
  %26 = call i32 (ptr, ptr, ...) @luaL_error(ptr noundef %24, ptr noundef @.str.29, ptr noundef %25)
  br label %27

27:                                               ; preds = %23, %4
  %28 = load ptr, ptr %5, align 8, !tbaa !4
  %29 = load ptr, ptr %6, align 8, !tbaa !12
  %30 = load ptr, ptr %9, align 8, !tbaa !12
  %31 = load ptr, ptr %8, align 8, !tbaa !12
  %32 = call ptr @searchpath(ptr noundef %28, ptr noundef %29, ptr noundef %30, ptr noundef @.str.19, ptr noundef %31)
  call void @llvm.lifetime.end.p0(i64 8, ptr %9) #6
  ret ptr %32
}

; Function Attrs: nounwind uwtable
define internal i32 @searcher_Lua(ptr noundef %0) #0 {
  %2 = alloca i32, align 4
  %3 = alloca ptr, align 8
  %4 = alloca ptr, align 8
  %5 = alloca ptr, align 8
  %6 = alloca i32, align 4
  store ptr %0, ptr %3, align 8, !tbaa !4
  call void @llvm.lifetime.start.p0(i64 8, ptr %4) #6
  call void @llvm.lifetime.start.p0(i64 8, ptr %5) #6
  %7 = load ptr, ptr %3, align 8, !tbaa !4
  %8 = call ptr @luaL_checklstring(ptr noundef %7, i32 noundef 1, ptr noundef null)
  store ptr %8, ptr %5, align 8, !tbaa !12
  %9 = load ptr, ptr %3, align 8, !tbaa !4
  %10 = load ptr, ptr %5, align 8, !tbaa !12
  %11 = call ptr @findfile(ptr noundef %9, ptr noundef %10, ptr noundef @.str, ptr noundef @.str.20)
  store ptr %11, ptr %4, align 8, !tbaa !12
  %12 = load ptr, ptr %4, align 8, !tbaa !12
  %13 = icmp eq ptr %12, null
  br i1 %13, label %14, label %15

14:                                               ; preds = %1
  store i32 1, ptr %2, align 4
  store i32 1, ptr %6, align 4
  br label %24

15:                                               ; preds = %1
  %16 = load ptr, ptr %3, align 8, !tbaa !4
  %17 = load ptr, ptr %3, align 8, !tbaa !4
  %18 = load ptr, ptr %4, align 8, !tbaa !12
  %19 = call i32 @luaL_loadfilex(ptr noundef %17, ptr noundef %18, ptr noundef null)
  %20 = icmp eq i32 %19, 0
  %21 = zext i1 %20 to i32
  %22 = load ptr, ptr %4, align 8, !tbaa !12
  %23 = call i32 @checkload(ptr noundef %16, i32 noundef %21, ptr noundef %22)
  store i32 %23, ptr %2, align 4
  store i32 1, ptr %6, align 4
  br label %24

24:                                               ; preds = %15, %14
  call void @llvm.lifetime.end.p0(i64 8, ptr %5) #6
  call void @llvm.lifetime.end.p0(i64 8, ptr %4) #6
  %25 = load i32, ptr %2, align 4
  ret i32 %25
}