; Function Attrs: nounwind uwtable
define internal i32 @searcher_Lua(ptr noundef %0) #0 {
  %2 = tail call ptr @luaL_checklstring(ptr noundef %0, i32 noundef 1, ptr noundef null) #7
  %3 = tail call i32 @lua_getfield(ptr noundef %0, i32 noundef -1001001, ptr noundef nonnull @.str) #7
  %4 = tail call ptr @lua_tolstring(ptr noundef %0, i32 noundef -1, ptr noundef null) #7
  %5 = icmp eq ptr %4, null
  br i1 %5, label %.split11.i, label %findfile.exit, !prof !17

.split11.i:                                       ; preds = %1
  %6 = tail call i32 (ptr, ptr, ...) @luaL_error(ptr noundef %0, ptr noundef nonnull @.str.29, ptr noundef nonnull @.str) #7
  br label %findfile.exit

findfile.exit:                                    ; preds = %1, %.split11.i
  %7 = tail call fastcc ptr @searchpath(ptr noundef %0, ptr noundef %2, ptr noundef %4, ptr noundef nonnull @.str.19, ptr noundef nonnull @.str.20)
  %8 = icmp eq ptr %7, null
  br i1 %8, label %checkload.exit, label %9

9:                                                ; preds = %findfile.exit
  %10 = tail call i32 @luaL_loadfilex(ptr noundef %0, ptr noundef nonnull %7, ptr noundef null) #7
  %.not = icmp eq i32 %10, 0
  br i1 %.not, label %11, label %13, !prof !16

11:                                               ; preds = %9
  %12 = tail call ptr @lua_pushstring(ptr noundef %0, ptr noundef nonnull %7) #7
  br label %checkload.exit

13:                                               ; preds = %9
  %14 = tail call ptr @lua_tolstring(ptr noundef %0, i32 noundef 1, ptr noundef null) #7
  %15 = tail call ptr @lua_tolstring(ptr noundef %0, i32 noundef -1, ptr noundef null) #7
  %16 = tail call i32 (ptr, ptr, ...) @luaL_error(ptr noundef %0, ptr noundef nonnull @.str.30, ptr noundef %14, ptr noundef nonnull %7, ptr noundef %15) #7
  br label %checkload.exit

checkload.exit:                                   ; preds = %13, %11, %findfile.exit
  %.0 = phi i32 [ 1, %findfile.exit ], [ 2, %11 ], [ %16, %13 ]
  ret i32 %.0
}